target datalayout = "e-m:e-p270:32:32-p271:32:32-p272:64:64-i64:64-i128:128-f80:128-n8:16:32:64-S128"
target triple = "x86_64-pc-linux-gnu"

%struct.GCRef = type { i64 }
%struct.GCstr = type { %struct.GCRef, i8, i8, i8, i8, i32, i32, i32 }
%struct.jit_State = type { %struct.GCtrace, ptr, ptr, ptr, ptr, ptr, ptr, i32, i32, i32, i8, i8, %struct.IRType1, i8, %struct.FoldState, ptr, i32, i32, i32, i32, i32, i32, i32, [1 x i32], [5 x %union.TValue], [3 x %union.TValue], ptr, i32, i32, i32, i32, ptr, ptr, i32, i32, i8, ptr, i32, i32, i16, [101 x i16], [258 x i32], [15 x i32], [16 x ptr], [64 x %struct.HotPenalty], i32, [16 x %struct.BPropEntry], i32, %struct.ScEvEntry, ptr, i32, i32, i32, ptr, i32, i32, ptr, ptr, ptr, i64, i64, %union.TValue, ptr, i32, i32 }
%struct.GCtrace = type { %struct.GCRef, i8, i8, i16, i32, i32, %struct.GCRef, ptr, i32, i32, ptr, ptr, %struct.GCRef, %struct.MRef, i32, i32, ptr, i32, i16, i16, i16, i16, i16, i16, i16, i8, i8, i8, i8 }
%struct.MRef = type { i64 }
%struct.IRType1 = type { i8 }
%struct.FoldState = type { %union.IRIns, [2 x %union.IRIns], [2 x %union.IRIns] }
%union.IRIns = type { %struct.GCRef }
%struct.HotPenalty = type { %struct.MRef, i16, i16 }
%struct.BPropEntry = type { i16, i16, i32 }
%struct.ScEvEntry = type { %struct.MRef, i16, i16, i16, i16, %struct.IRType1, i8 }
%union.TValue = type { i64 }
%struct.anon.2 = type { i16, i16, i16, i16 }

; Function Attrs: alwaysinline nounwind uwtable
define internal void @lj_ir_set_(ptr noundef %0, i16 noundef zeroext %1, i16 noundef zeroext %2, i16 noundef zeroext %3) #1 {
  %5 = alloca ptr, align 8
  %6 = alloca i16, align 2
  %7 = alloca i16, align 2
  %8 = alloca i16, align 2
  store ptr %0, ptr %5, align 8, !tbaa !4
  store i16 %1, ptr %6, align 2, !tbaa !14
  store i16 %2, ptr %7, align 2, !tbaa !14
  store i16 %3, ptr %8, align 2, !tbaa !14
  %9 = load i16, ptr %6, align 2, !tbaa !14
  %10 = load ptr, ptr %5, align 8, !tbaa !4
  %11 = getelementptr inbounds nuw %struct.jit_State, ptr %10, i32 0, i32 14
  %12 = getelementptr inbounds nuw %struct.FoldState, ptr %11, i32 0, i32 0
  %13 = getelementptr inbounds nuw %struct.anon.2, ptr %12, i32 0, i32 2
  store i16 %9, ptr %13, align 4, !tbaa !13
  %14 = load i16, ptr %7, align 2, !tbaa !14
  %15 = load ptr, ptr %5, align 8, !tbaa !4
  %16 = getelementptr inbounds nuw %struct.jit_State, ptr %15, i32 0, i32 14
  %17 = getelementptr inbounds nuw %struct.FoldState, ptr %16, i32 0, i32 0
  %18 = getelementptr inbounds nuw %struct.anon.2, ptr %17, i32 0, i32 0
  store i16 %14, ptr %18, align 8, !tbaa !13
  %19 = load i16, ptr %8, align 2, !tbaa !14
  %20 = load ptr, ptr %5, align 8, !tbaa !4
  %21 = getelementptr inbounds nuw %struct.jit_State, ptr %20, i32 0, i32 14
  %22 = getelementptr inbounds nuw %struct.FoldState, ptr %21, i32 0, i32 0
  %23 = getelementptr inbounds nuw %struct.anon.2, ptr %22, i32 0, i32 1
  store i16 %19, ptr %23, align 2, !tbaa !13
  ret void
}

; Function Attrs: nounwind uwtable
define internal i32 @recff_string_start(ptr noundef %0, ptr noundef %1, ptr noundef %2, i32 noundef %3, i32 noundef %4, i32 noundef %5) #0 {
  %7 = alloca ptr, align 8
  %8 = alloca ptr, align 8
  %9 = alloca ptr, align 8
  %10 = alloca i32, align 4
  %11 = alloca i32, align 4
  %12 = alloca i32, align 4
  %13 = alloca i32, align 4
  store ptr %0, ptr %7, align 8, !tbaa !4
  store ptr %1, ptr %8, align 8, !tbaa !67
  store ptr %2, ptr %9, align 8, !tbaa !88
  store i32 %3, ptr %10, align 4, !tbaa !9
  store i32 %4, ptr %11, align 4, !tbaa !9
  store i32 %5, ptr %12, align 4, !tbaa !9
  call void @llvm.lifetime.start.p0(i64 4, ptr %13) #9
  %14 = load ptr, ptr %9, align 8, !tbaa !88
  %15 = load i32, ptr %14, align 4, !tbaa !9
  store i32 %15, ptr %13, align 4, !tbaa !9
  %16 = load i32, ptr %13, align 4, !tbaa !9
  %17 = icmp slt i32 %16, 0
  br i1 %17, label %18, label %54

18:                                               ; preds = %6
  %19 = load ptr, ptr %7, align 8, !tbaa !4
  %20 = load i32, ptr %10, align 4, !tbaa !9
  %21 = trunc i32 %20 to i16
  %22 = load i32, ptr %12, align 4, !tbaa !9
  %23 = trunc i32 %22 to i16
  call void @lj_ir_set_(ptr noundef %19, i16 noundef zeroext 147, i16 noundef zeroext %21, i16 noundef zeroext %23)
  %24 = load ptr, ptr %7, align 8, !tbaa !4
  %25 = call i32 @lj_opt_fold(ptr noundef %24)
  %26 = load ptr, ptr %7, align 8, !tbaa !4
  %27 = load i32, ptr %11, align 4, !tbaa !9
  %28 = trunc i32 %27 to i16
  %29 = load i32, ptr %10, align 4, !tbaa !9
  %30 = trunc i32 %29 to i16
  call void @lj_ir_set_(ptr noundef %26, i16 noundef zeroext 10515, i16 noundef zeroext %28, i16 noundef zeroext %30)
  %31 = load ptr, ptr %7, align 8, !tbaa !4
  %32 = call i32 @lj_opt_fold(ptr noundef %31)
  store i32 %32, ptr %10, align 4, !tbaa !9
  %33 = load i32, ptr %13, align 4, !tbaa !9
  %34 = load ptr, ptr %8, align 8, !tbaa !67
  %35 = getelementptr inbounds nuw %struct.GCstr, ptr %34, i32 0, i32 7
  %36 = load i32, ptr %35, align 4, !tbaa !69
  %37 = add nsw i32 %33, %36
  store i32 %37, ptr %13, align 4, !tbaa !9
  %38 = load ptr, ptr %7, align 8, !tbaa !4
  %39 = load i32, ptr %13, align 4, !tbaa !9
  %40 = icmp slt i32 %39, 0
  %41 = select i1 %40, i32 147, i32 403
  %42 = trunc i32 %41 to i16
  %43 = load i32, ptr %10, align 4, !tbaa !9
  %44 = trunc i32 %43 to i16
  %45 = load i32, ptr %12, align 4, !tbaa !9
  %46 = trunc i32 %45 to i16
  call void @lj_ir_set_(ptr noundef %38, i16 noundef zeroext %42, i16 noundef zeroext %44, i16 noundef zeroext %46)
  %47 = load ptr, ptr %7, align 8, !tbaa !4
  %48 = call i32 @lj_opt_fold(ptr noundef %47)
  %49 = load i32, ptr %13, align 4, !tbaa !9
  %50 = icmp slt i32 %49, 0
  br i1 %50, label %51, label %53

51:                                               ; preds = %18
  %52 = load i32, ptr %12, align 4, !tbaa !9
  store i32 %52, ptr %10, align 4, !tbaa !9
  store i32 0, ptr %13, align 4, !tbaa !9
  br label %53

53:                                               ; preds = %51, %18
  br label %85

54:                                               ; preds = %6
  %55 = load i32, ptr %13, align 4, !tbaa !9
  %56 = icmp eq i32 %55, 0
  br i1 %56, label %57, label %66

57:                                               ; preds = %54
  %58 = load ptr, ptr %7, align 8, !tbaa !4
  %59 = load i32, ptr %10, align 4, !tbaa !9
  %60 = trunc i32 %59 to i16
  %61 = load i32, ptr %12, align 4, !tbaa !9
  %62 = trunc i32 %61 to i16
  call void @lj_ir_set_(ptr noundef %58, i16 noundef zeroext 2195, i16 noundef zeroext %60, i16 noundef zeroext %62)
  %63 = load ptr, ptr %7, align 8, !tbaa !4
  %64 = call i32 @lj_opt_fold(ptr noundef %63)
  %65 = load i32, ptr %12, align 4, !tbaa !9
  store i32 %65, ptr %10, align 4, !tbaa !9
  br label %84

66:                                               ; preds = %54
  %67 = load ptr, ptr %7, align 8, !tbaa !4
  %68 = load i32, ptr %10, align 4, !tbaa !9
  %69 = trunc i32 %68 to i16
  %70 = load ptr, ptr %7, align 8, !tbaa !4
  %71 = call i32 @lj_ir_kint(ptr noundef %70, i32 noundef -1)
  %72 = trunc i32 %71 to i16
  call void @lj_ir_set_(ptr noundef %67, i16 noundef zeroext 10515, i16 noundef zeroext %69, i16 noundef zeroext %72)
  %73 = load ptr, ptr %7, align 8, !tbaa !4
  %74 = call i32 @lj_opt_fold(ptr noundef %73)
  store i32 %74, ptr %10, align 4, !tbaa !9
  %75 = load ptr, ptr %7, align 8, !tbaa !4
  %76 = load i32, ptr %10, align 4, !tbaa !9
  %77 = trunc i32 %76 to i16
  %78 = load i32, ptr %12, align 4, !tbaa !9
  %79 = trunc i32 %78 to i16
  call void @lj_ir_set_(ptr noundef %75, i16 noundef zeroext 403, i16 noundef zeroext %77, i16 noundef zeroext %79)
  %80 = load ptr, ptr %7, align 8, !tbaa !4
  %81 = call i32 @lj_opt_fold(ptr noundef %80)
  %82 = load i32, ptr %13, align 4, !tbaa !9
  %83 = add nsw i32 %82, -1
  store i32 %83, ptr %13, align 4, !tbaa !9
  br label %84

84:                                               ; preds = %66, %57
  br label %85

85:                                               ; preds = %84, %53
  %86 = load i32, ptr %13, align 4, !tbaa !9
  %87 = load ptr, ptr %9, align 8, !tbaa !88
  store i32 %86, ptr %87, align 4, !tbaa !9
  %88 = load i32, ptr %10, align 4, !tbaa !9
  call void @llvm.lifetime.end.p0(i64 4, ptr %13) #9
  ret i32 %88
}