; Function Attrs: nounwind uwtable
define internal fastcc i32 @recff_string_start(ptr noundef %0, ptr noundef readonly captures(none) %1, ptr noundef nonnull captures(none) %2, i32 noundef %3, i32 noundef %4, i32 noundef %5) unnamed_addr #0 {
  %7 = load i32, ptr %2, align 4, !tbaa !39
  %8 = icmp slt i32 %7, 0
  br i1 %8, label %9, label %25

9:                                                ; preds = %6
  %10 = trunc i32 %3 to i16
  %11 = trunc i32 %5 to i16
  %12 = getelementptr inbounds nuw i8, ptr %0, i64 184
  %13 = getelementptr inbounds nuw i8, ptr %0, i64 188
  store i16 147, ptr %13, align 4, !tbaa !4
  store i16 %10, ptr %12, align 8, !tbaa !4
  %14 = getelementptr inbounds nuw i8, ptr %0, i64 186
  store i16 %11, ptr %14, align 2, !tbaa !4
  %15 = tail call i32 @lj_opt_fold(ptr noundef %0) #9
  %16 = trunc i32 %4 to i16
  store i16 10515, ptr %13, align 4, !tbaa !4
  store i16 %16, ptr %12, align 8, !tbaa !4
  store i16 %10, ptr %14, align 2, !tbaa !4
  %17 = tail call i32 @lj_opt_fold(ptr noundef %0) #9
  %18 = getelementptr inbounds nuw i8, ptr %1, i64 20
  %19 = load i32, ptr %18, align 4, !tbaa !61
  %20 = add nsw i32 %19, %7
  %21 = icmp slt i32 %20, 0
  %22 = select i1 %21, i16 147, i16 403
  %23 = trunc i32 %17 to i16
  store i16 %22, ptr %13, align 4, !tbaa !4
  store i16 %23, ptr %12, align 8, !tbaa !4
  store i16 %11, ptr %14, align 2, !tbaa !4
  %24 = tail call i32 @lj_opt_fold(ptr noundef %0) #9
  %spec.select = select i1 %21, i32 %5, i32 %17
  %spec.select39 = tail call i32 @llvm.smax.i32(i32 %20, i32 0)
  br label %45

25:                                               ; preds = %6
  %26 = icmp eq i32 %7, 0
  %27 = trunc i32 %3 to i16
  br i1 %26, label %28, label %34

28:                                               ; preds = %25
  %29 = trunc i32 %5 to i16
  %30 = getelementptr inbounds nuw i8, ptr %0, i64 184
  %31 = getelementptr inbounds nuw i8, ptr %0, i64 188
  store i16 2195, ptr %31, align 4, !tbaa !4
  store i16 %27, ptr %30, align 8, !tbaa !4
  %32 = getelementptr inbounds nuw i8, ptr %0, i64 186
  store i16 %29, ptr %32, align 2, !tbaa !4
  %33 = tail call i32 @lj_opt_fold(ptr noundef %0) #9
  br label %45

34:                                               ; preds = %25
  %35 = tail call i32 @lj_ir_kint(ptr noundef %0, i32 noundef -1) #9
  %36 = trunc i32 %35 to i16
  %37 = getelementptr inbounds nuw i8, ptr %0, i64 184
  %38 = getelementptr inbounds nuw i8, ptr %0, i64 188
  store i16 10515, ptr %38, align 4, !tbaa !4
  store i16 %27, ptr %37, align 8, !tbaa !4
  %39 = getelementptr inbounds nuw i8, ptr %0, i64 186
  store i16 %36, ptr %39, align 2, !tbaa !4
  %40 = tail call i32 @lj_opt_fold(ptr noundef %0) #9
  %41 = trunc i32 %40 to i16
  %42 = trunc i32 %5 to i16
  store i16 403, ptr %38, align 4, !tbaa !4
  store i16 %41, ptr %37, align 8, !tbaa !4
  store i16 %42, ptr %39, align 2, !tbaa !4
  %43 = tail call i32 @lj_opt_fold(ptr noundef %0) #9
  %44 = add nsw i32 %7, -1
  br label %45

45:                                               ; preds = %9, %28, %34
  %.036 = phi i32 [ %5, %28 ], [ %40, %34 ], [ %spec.select, %9 ]
  %.0 = phi i32 [ 0, %28 ], [ %44, %34 ], [ %spec.select39, %9 ]
  store i32 %.0, ptr %2, align 4, !tbaa !39
  ret i32 %.036
}